target datalayout = "e-m:e-p270:32:32-p271:32:32-p272:64:64-i64:64-i128:128-f80:128-n8:16:32:64-S128"
target triple = "x86_64-pc-linux-gnu"

@mainctx = internal global ptr null, align 8
@.str.28 = private unnamed_addr constant [34 x i8] c"../openssl/test/evp_extra_test2.c\00", align 1
@.str.42 = private unnamed_addr constant [2 x i8] c"d\00", align 1
@.str.44 = private unnamed_addr constant [5 x i8] c"priv\00", align 1
@.str.57 = private unnamed_addr constant [2 x i8] c"1\00", align 1
@.str.76 = private unnamed_addr constant [4 x i8] c"RSA\00", align 1
@.str.77 = private unnamed_addr constant [7 x i8] c"X25519\00", align 1
@.str.78 = private unnamed_addr constant [55 x i8] c"EVP_PKEY_todata(key, EVP_PKEY_PUBLIC_KEY, &pub_params)\00", align 1
@.str.79 = private unnamed_addr constant [39 x i8] c"OSSL_PARAM_locate(pub_params, privtag)\00", align 1
@.str.80 = private unnamed_addr constant [56 x i8] c"EVP_PKEY_todata(key, EVP_PKEY_KEYPAIR, &keypair_params)\00", align 1
@.str.81 = private unnamed_addr constant [43 x i8] c"OSSL_PARAM_locate(keypair_params, privtag)\00", align 1
@.str.82 = private unnamed_addr constant [61 x i8] c"fromctx = EVP_PKEY_CTX_new_from_name(mainctx, keytype, NULL)\00", align 1
@.str.83 = private unnamed_addr constant [32 x i8] c"EVP_PKEY_fromdata_init(fromctx)\00", align 1
@.str.84 = private unnamed_addr constant [74 x i8] c"EVP_PKEY_fromdata(fromctx, &fromkey, EVP_PKEY_PUBLIC_KEY, keypair_params)\00", align 1
@.str.85 = private unnamed_addr constant [50 x i8] c"pkey_has_private(fromkey, privtag, use_octstring)\00", align 1
@.str.86 = private unnamed_addr constant [75 x i8] c"EVP_PKEY_fromdata(fromctx, &fromkeypair, EVP_PKEY_KEYPAIR, keypair_params)\00", align 1
@.str.87 = private unnamed_addr constant [54 x i8] c"pkey_has_private(fromkeypair, privtag, use_octstring)\00", align 1

; Function Attrs: nounwind uwtable
define internal i32 @do_pkey_tofrom_data_select(ptr noundef %0, ptr noundef %1) #0 {
  %3 = alloca ptr, align 8
  %4 = alloca ptr, align 8
  %5 = alloca i32, align 4
  %6 = alloca ptr, align 8
  %7 = alloca ptr, align 8
  %8 = alloca ptr, align 8
  %9 = alloca ptr, align 8
  %10 = alloca ptr, align 8
  %11 = alloca ptr, align 8
  %12 = alloca i32, align 4
  store ptr %0, ptr %3, align 8, !tbaa !13
  store ptr %1, ptr %4, align 8, !tbaa !21
  call void @llvm.lifetime.start.p0(i64 4, ptr %5) #7
  store i32 0, ptr %5, align 4, !tbaa !11
  call void @llvm.lifetime.start.p0(i64 8, ptr %6) #7
  store ptr null, ptr %6, align 8, !tbaa !35
  call void @llvm.lifetime.start.p0(i64 8, ptr %7) #7
  store ptr null, ptr %7, align 8, !tbaa !35
  call void @llvm.lifetime.start.p0(i64 8, ptr %8) #7
  store ptr null, ptr %8, align 8, !tbaa !13
  call void @llvm.lifetime.start.p0(i64 8, ptr %9) #7
  store ptr null, ptr %9, align 8, !tbaa !13
  call void @llvm.lifetime.start.p0(i64 8, ptr %10) #7
  store ptr null, ptr %10, align 8, !tbaa !29
  call void @llvm.lifetime.start.p0(i64 8, ptr %11) #7
  %13 = load ptr, ptr %4, align 8, !tbaa !21
  %14 = call i32 @strcmp(ptr noundef %13, ptr noundef @.str.76) #8
  %15 = icmp eq i32 %14, 0
  %16 = select i1 %15, ptr @.str.42, ptr @.str.44
  store ptr %16, ptr %11, align 8, !tbaa !21
  call void @llvm.lifetime.start.p0(i64 4, ptr %12) #7
  %17 = load ptr, ptr %4, align 8, !tbaa !21
  %18 = call i32 @strcmp(ptr noundef %17, ptr noundef @.str.77) #8
  %19 = icmp eq i32 %18, 0
  %20 = zext i1 %19 to i32
  store i32 %20, ptr %12, align 4, !tbaa !11
  %21 = load ptr, ptr %3, align 8, !tbaa !13
  %22 = call i32 @EVP_PKEY_todata(ptr noundef %21, i32 noundef 134, ptr noundef %6)
  %23 = call i32 @test_int_eq(ptr noundef @.str.28, i32 noundef 305, ptr noundef @.str.78, ptr noundef @.str.57, i32 noundef %22, i32 noundef 1)
  %24 = icmp ne i32 %23, 0
  br i1 %24, label %25, label %31

25:                                               ; preds = %2
  %26 = load ptr, ptr %6, align 8, !tbaa !35
  %27 = load ptr, ptr %11, align 8, !tbaa !21
  %28 = call ptr @OSSL_PARAM_locate(ptr noundef %26, ptr noundef %27)
  %29 = call i32 @test_ptr_null(ptr noundef @.str.28, i32 noundef 306, ptr noundef @.str.79, ptr noundef %28)
  %30 = icmp ne i32 %29, 0
  br i1 %30, label %32, label %31

31:                                               ; preds = %25, %2
  br label %88

32:                                               ; preds = %25
  %33 = load ptr, ptr %3, align 8, !tbaa !13
  %34 = call i32 @EVP_PKEY_todata(ptr noundef %33, i32 noundef 135, ptr noundef %7)
  %35 = call i32 @test_int_eq(ptr noundef @.str.28, i32 noundef 312, ptr noundef @.str.80, ptr noundef @.str.57, i32 noundef %34, i32 noundef 1)
  %36 = icmp ne i32 %35, 0
  br i1 %36, label %37, label %43

37:                                               ; preds = %32
  %38 = load ptr, ptr %7, align 8, !tbaa !35
  %39 = load ptr, ptr %11, align 8, !tbaa !21
  %40 = call ptr @OSSL_PARAM_locate(ptr noundef %38, ptr noundef %39)
  %41 = call i32 @test_ptr(ptr noundef @.str.28, i32 noundef 313, ptr noundef @.str.81, ptr noundef %40)
  %42 = icmp ne i32 %41, 0
  br i1 %42, label %44, label %43

43:                                               ; preds = %37, %32
  br label %88

44:                                               ; preds = %37
  %45 = load ptr, ptr @mainctx, align 8, !tbaa !4
  %46 = load ptr, ptr %4, align 8, !tbaa !21
  %47 = call ptr @EVP_PKEY_CTX_new_from_name(ptr noundef %45, ptr noundef %46, ptr noundef null)
  store ptr %47, ptr %10, align 8, !tbaa !29
  %48 = call i32 @test_ptr(ptr noundef @.str.28, i32 noundef 320, ptr noundef @.str.82, ptr noundef %47)
  %49 = icmp ne i32 %48, 0
  br i1 %49, label %50, label %70

50:                                               ; preds = %44
  %51 = load ptr, ptr %10, align 8, !tbaa !29
  %52 = call i32 @EVP_PKEY_fromdata_init(ptr noundef %51)
  %53 = call i32 @test_int_eq(ptr noundef @.str.28, i32 noundef 321, ptr noundef @.str.83, ptr noundef @.str.57, i32 noundef %52, i32 noundef 1)
  %54 = icmp ne i32 %53, 0
  br i1 %54, label %55, label %70

55:                                               ; preds = %50
  %56 = load ptr, ptr %10, align 8, !tbaa !29
  %57 = load ptr, ptr %7, align 8, !tbaa !35
  %58 = call i32 @EVP_PKEY_fromdata(ptr noundef %56, ptr noundef %8, i32 noundef 134, ptr noundef %57)
  %59 = call i32 @test_int_eq(ptr noundef @.str.28, i32 noundef 323, ptr noundef @.str.84, ptr noundef @.str.57, i32 noundef %58, i32 noundef 1)
  %60 = icmp ne i32 %59, 0
  br i1 %60, label %61, label %70

61:                                               ; preds = %55
  %62 = load ptr, ptr %8, align 8, !tbaa !13
  %63 = load ptr, ptr %11, align 8, !tbaa !21
  %64 = load i32, ptr %12, align 4, !tbaa !11
  %65 = call i32 @pkey_has_private(ptr noundef %62, ptr noundef %63, i32 noundef %64)
  %66 = icmp ne i32 %65, 0
  %67 = zext i1 %66 to i32
  %68 = call i32 @test_false(ptr noundef @.str.28, i32 noundef 324, ptr noundef @.str.85, i32 noundef %67)
  %69 = icmp ne i32 %68, 0
  br i1 %69, label %71, label %70

70:                                               ; preds = %61, %55, %50, %44
  br label %88

71:                                               ; preds = %61
  %72 = load ptr, ptr %10, align 8, !tbaa !29
  %73 = load ptr, ptr %7, align 8, !tbaa !35
  %74 = call i32 @EVP_PKEY_fromdata(ptr noundef %72, ptr noundef %9, i32 noundef 135, ptr noundef %73)
  %75 = call i32 @test_int_eq(ptr noundef @.str.28, i32 noundef 331, ptr noundef @.str.86, ptr noundef @.str.57, i32 noundef %74, i32 noundef 1)
  %76 = icmp ne i32 %75, 0
  br i1 %76, label %77, label %86

77:                                               ; preds = %71
  %78 = load ptr, ptr %9, align 8, !tbaa !13
  %79 = load ptr, ptr %11, align 8, !tbaa !21
  %80 = load i32, ptr %12, align 4, !tbaa !11
  %81 = call i32 @pkey_has_private(ptr noundef %78, ptr noundef %79, i32 noundef %80)
  %82 = icmp ne i32 %81, 0
  %83 = zext i1 %82 to i32
  %84 = call i32 @test_true(ptr noundef @.str.28, i32 noundef 332, ptr noundef @.str.87, i32 noundef %83)
  %85 = icmp ne i32 %84, 0
  br i1 %85, label %87, label %86

86:                                               ; preds = %77, %71
  br label %88

87:                                               ; preds = %77
  store i32 1, ptr %5, align 4, !tbaa !11
  br label %88

88:                                               ; preds = %87, %86, %70, %43, %31
  %89 = load ptr, ptr %9, align 8, !tbaa !13
  call void @EVP_PKEY_free(ptr noundef %89)
  %90 = load ptr, ptr %8, align 8, !tbaa !13
  call void @EVP_PKEY_free(ptr noundef %90)
  %91 = load ptr, ptr %10, align 8, !tbaa !29
  call void @EVP_PKEY_CTX_free(ptr noundef %91)
  %92 = load ptr, ptr %7, align 8, !tbaa !35
  call void @OSSL_PARAM_free(ptr noundef %92)
  %93 = load ptr, ptr %6, align 8, !tbaa !35
  call void @OSSL_PARAM_free(ptr noundef %93)
  %94 = load i32, ptr %5, align 4, !tbaa !11
  call void @llvm.lifetime.end.p0(i64 4, ptr %12) #7
  call void @llvm.lifetime.end.p0(i64 8, ptr %11) #7
  call void @llvm.lifetime.end.p0(i64 8, ptr %10) #7
  call void @llvm.lifetime.end.p0(i64 8, ptr %9) #7
  call void @llvm.lifetime.end.p0(i64 8, ptr %8) #7
  call void @llvm.lifetime.end.p0(i64 8, ptr %7) #7
  call void @llvm.lifetime.end.p0(i64 8, ptr %6) #7
  call void @llvm.lifetime.end.p0(i64 4, ptr %5) #7
  ret i32 %94
}