; Function Attrs: nounwind uwtable
define internal fastcc range(i32 0, 2) i32 @do_pkey_tofrom_data_select(ptr noundef %0, ptr noundef %1) unnamed_addr #0 {
  %3 = alloca [64 x i8], align 16
  %4 = alloca ptr, align 8
  %5 = alloca ptr, align 8
  %6 = alloca ptr, align 8
  %7 = alloca ptr, align 8
  %8 = alloca ptr, align 8
  call void @llvm.lifetime.start.p0(i64 8, ptr nonnull %5) #7
  store ptr null, ptr %5, align 8, !tbaa !20
  call void @llvm.lifetime.start.p0(i64 8, ptr nonnull %6) #7
  store ptr null, ptr %6, align 8, !tbaa !20
  call void @llvm.lifetime.start.p0(i64 8, ptr nonnull %7) #7
  store ptr null, ptr %7, align 8, !tbaa !26
  call void @llvm.lifetime.start.p0(i64 8, ptr nonnull %8) #7
  store ptr null, ptr %8, align 8, !tbaa !26
  %9 = tail call i32 @strcmp(ptr noundef nonnull dereferenceable(1) %1, ptr noundef nonnull dereferenceable(4) @.str.76) #8
  %10 = icmp eq i32 %9, 0
  %11 = select i1 %10, ptr @.str.42, ptr @.str.44
  %12 = tail call i32 @strcmp(ptr noundef nonnull dereferenceable(1) %1, ptr noundef nonnull dereferenceable(7) @.str.77) #8
  %13 = icmp eq i32 %12, 0
  %14 = zext i1 %13 to i32
  %15 = call i32 @EVP_PKEY_todata(ptr noundef %0, i32 noundef 134, ptr noundef nonnull %5) #7
  %16 = call i32 @test_int_eq(ptr noundef nonnull @.str.28, i32 noundef 305, ptr noundef nonnull @.str.78, ptr noundef nonnull @.str.57, i32 noundef %15, i32 noundef 1) #7
  %.not = icmp eq i32 %16, 0
  br i1 %.not, label %58, label %17

17:                                               ; preds = %2
  %18 = load ptr, ptr %5, align 8, !tbaa !20
  %19 = call ptr @OSSL_PARAM_locate(ptr noundef %18, ptr noundef nonnull %11) #7
  %20 = call i32 @test_ptr_null(ptr noundef nonnull @.str.28, i32 noundef 306, ptr noundef nonnull @.str.79, ptr noundef %19) #7
  %.not16 = icmp eq i32 %20, 0
  br i1 %.not16, label %58, label %21

21:                                               ; preds = %17
  %22 = call i32 @EVP_PKEY_todata(ptr noundef %0, i32 noundef 135, ptr noundef nonnull %6) #7
  %23 = call i32 @test_int_eq(ptr noundef nonnull @.str.28, i32 noundef 312, ptr noundef nonnull @.str.80, ptr noundef nonnull @.str.57, i32 noundef %22, i32 noundef 1) #7
  %.not17 = icmp eq i32 %23, 0
  br i1 %.not17, label %58, label %24

24:                                               ; preds = %21
  %25 = load ptr, ptr %6, align 8, !tbaa !20
  %26 = call ptr @OSSL_PARAM_locate(ptr noundef %25, ptr noundef nonnull %11) #7
  %27 = call i32 @test_ptr(ptr noundef nonnull @.str.28, i32 noundef 313, ptr noundef nonnull @.str.81, ptr noundef %26) #7
  %.not18 = icmp eq i32 %27, 0
  br i1 %.not18, label %58, label %28

28:                                               ; preds = %24
  %29 = load ptr, ptr @mainctx, align 8, !tbaa !4
  %30 = call ptr @EVP_PKEY_CTX_new_from_name(ptr noundef %29, ptr noundef nonnull %1, ptr noundef null) #7
  %31 = call i32 @test_ptr(ptr noundef nonnull @.str.28, i32 noundef 320, ptr noundef nonnull @.str.82, ptr noundef %30) #7
  %.not19 = icmp eq i32 %31, 0
  br i1 %.not19, label %58, label %32

32:                                               ; preds = %28
  %33 = call i32 @EVP_PKEY_fromdata_init(ptr noundef %30) #7
  %34 = call i32 @test_int_eq(ptr noundef nonnull @.str.28, i32 noundef 321, ptr noundef nonnull @.str.83, ptr noundef nonnull @.str.57, i32 noundef %33, i32 noundef 1) #7
  %.not20 = icmp eq i32 %34, 0
  br i1 %.not20, label %58, label %35

35:                                               ; preds = %32
  %36 = load ptr, ptr %6, align 8, !tbaa !20
  %37 = call i32 @EVP_PKEY_fromdata(ptr noundef %30, ptr noundef nonnull %7, i32 noundef 134, ptr noundef %36) #7
  %38 = call i32 @test_int_eq(ptr noundef nonnull @.str.28, i32 noundef 323, ptr noundef nonnull @.str.84, ptr noundef nonnull @.str.57, i32 noundef %37, i32 noundef 1) #7
  %.not21 = icmp eq i32 %38, 0
  br i1 %.not21, label %58, label %39

39:                                               ; preds = %35
  %40 = load ptr, ptr %7, align 8, !tbaa !26
  br i1 %13, label %41, label %43

41:                                               ; preds = %39
  call void @llvm.lifetime.start.p0(i64 64, ptr nonnull %3) #7
  %42 = call i32 @EVP_PKEY_get_octet_string_param(ptr noundef %40, ptr noundef nonnull %11, ptr noundef nonnull %3, i64 noundef 64, ptr noundef null) #7
  call void @llvm.lifetime.end.p0(i64 64, ptr nonnull %3) #7
  br label %pkey_has_private.exit

43:                                               ; preds = %39
  call void @llvm.lifetime.start.p0(i64 8, ptr nonnull %4) #7
  store ptr null, ptr %4, align 8, !tbaa !16
  %44 = call i32 @EVP_PKEY_get_bn_param(ptr noundef %40, ptr noundef nonnull %11, ptr noundef nonnull %4) #7
  %45 = load ptr, ptr %4, align 8, !tbaa !16
  call void @BN_free(ptr noundef %45) #7
  call void @llvm.lifetime.end.p0(i64 8, ptr nonnull %4) #7
  br label %pkey_has_private.exit

pkey_has_private.exit:                            ; preds = %41, %43
  %.0.i = phi i32 [ %42, %41 ], [ %44, %43 ]
  %46 = icmp ne i32 %.0.i, 0
  %47 = zext i1 %46 to i32
  %48 = call i32 @test_false(ptr noundef nonnull @.str.28, i32 noundef 324, ptr noundef nonnull @.str.85, i32 noundef %47) #7
  %.not22 = icmp eq i32 %48, 0
  br i1 %.not22, label %58, label %49

49:                                               ; preds = %pkey_has_private.exit
  %50 = load ptr, ptr %6, align 8, !tbaa !20
  %51 = call i32 @EVP_PKEY_fromdata(ptr noundef %30, ptr noundef nonnull %8, i32 noundef 135, ptr noundef %50) #7
  %52 = call i32 @test_int_eq(ptr noundef nonnull @.str.28, i32 noundef 331, ptr noundef nonnull @.str.86, ptr noundef nonnull @.str.57, i32 noundef %51, i32 noundef 1) #7
  %.not23 = icmp eq i32 %52, 0
  %.pre25 = load ptr, ptr %8, align 8, !tbaa !26
  br i1 %.not23, label %58, label %53

53:                                               ; preds = %49
  %54 = call fastcc i32 @pkey_has_private(ptr noundef %.pre25, ptr noundef nonnull %11, i32 noundef %14)
  %55 = icmp ne i32 %54, 0
  %56 = zext i1 %55 to i32
  %57 = call i32 @test_true(ptr noundef nonnull @.str.28, i32 noundef 332, ptr noundef nonnull @.str.87, i32 noundef %56) #7
  %.not24 = icmp ne i32 %57, 0
  %spec.select = zext i1 %.not24 to i32
  %.pre = load ptr, ptr %8, align 8, !tbaa !26
  br label %58

58:                                               ; preds = %53, %49, %28, %32, %35, %pkey_has_private.exit, %21, %24, %2, %17
  %59 = phi ptr [ %.pre25, %49 ], [ null, %pkey_has_private.exit ], [ null, %35 ], [ null, %32 ], [ null, %28 ], [ null, %24 ], [ null, %21 ], [ null, %17 ], [ null, %2 ], [ %.pre, %53 ]
  %.015 = phi ptr [ %30, %49 ], [ %30, %pkey_has_private.exit ], [ %30, %35 ], [ %30, %32 ], [ %30, %28 ], [ null, %24 ], [ null, %21 ], [ null, %17 ], [ null, %2 ], [ %30, %53 ]
  %.0 = phi i32 [ 0, %49 ], [ 0, %pkey_has_private.exit ], [ 0, %35 ], [ 0, %32 ], [ 0, %28 ], [ 0, %24 ], [ 0, %21 ], [ 0, %17 ], [ 0, %2 ], [ %spec.select, %53 ]
  call void @EVP_PKEY_free(ptr noundef %59) #7
  %60 = load ptr, ptr %7, align 8, !tbaa !26
  call void @EVP_PKEY_free(ptr noundef %60) #7
  call void @EVP_PKEY_CTX_free(ptr noundef %.015) #7
  %61 = load ptr, ptr %6, align 8, !tbaa !20
  call void @OSSL_PARAM_free(ptr noundef %61) #7
  %62 = load ptr, ptr %5, align 8, !tbaa !20
  call void @OSSL_PARAM_free(ptr noundef %62) #7
  call void @llvm.lifetime.end.p0(i64 8, ptr nonnull %8) #7
  call void @llvm.lifetime.end.p0(i64 8, ptr nonnull %7) #7
  call void @llvm.lifetime.end.p0(i64 8, ptr nonnull %6) #7
  call void @llvm.lifetime.end.p0(i64 8, ptr nonnull %5) #7
  ret i32 %.0
}